target datalayout = "e-m:e-p270:32:32-p271:32:32-p272:64:64-i64:64-i128:128-f80:128-n8:16:32:64-S128"
target triple = "x86_64-pc-linux-gnu"

%class.svector = type { %class.vector }
%class.vector = type { ptr }
%class.ast = type { i32, i32, i32, i32 }
%class.obj_ref.26 = type { ptr, ptr }
%class.ref_vector_core = type { %class.ref_manager_wrapper, %class.ptr_vector.27 }
%class.ref_manager_wrapper = type { ptr }
%class.ptr_vector.27 = type { %class.vector.28 }
%class.vector.28 = type { ptr }
%class.ref_vector = type { %class.ref_vector_core }
%class.demodulator_match_subst = type <{ %class.substitution, %class.obj_pair_hashtable, %class.svector.44, i8, [7 x i8] }>
%class.substitution = type <{ ptr, %class.var_offset_map, %class.svector.33, %class.ref_vector, %class.svector, %class.svector.35, %class.expr_offset_map, %class.ref_vector, %class.expr_offset_map.38, i32, [4 x i8] }>
%class.var_offset_map = type <{ %class.svector.31, i32, i32, i32, [4 x i8] }>
%class.svector.31 = type { %class.vector.32 }
%class.vector.32 = type { ptr }
%class.svector.33 = type { %class.vector.34 }
%class.vector.34 = type { ptr }
%class.svector.35 = type { %class.vector.36 }
%class.vector.36 = type { ptr }
%class.expr_offset_map = type <{ %class.vector.37, i32, [4 x i8] }>
%class.vector.37 = type { ptr }
%class.expr_offset_map.38 = type <{ %class.vector.39, i32, [4 x i8] }>
%class.vector.39 = type { ptr }
%class.obj_pair_hashtable = type { %class.core_hashtable.base.43, [4 x i8] }
%class.core_hashtable.base.43 = type <{ ptr, i32, i32, i32 }>
%class.svector.44 = type { %class.vector.45 }
%class.vector.45 = type { ptr }
%class.expr_offset = type <{ ptr, i32, [4 x i8] }>

; Function Attrs: mustprogress nounwind uwtable
define linkonce_odr hidden noundef i32 @_ZNK3ast13get_ref_countEv(ptr noundef nonnull align 4 dereferenceable(16) %0) #7 comdat align 2 {
  %2 = alloca ptr, align 8
  store ptr %0, ptr %2, align 8, !tbaa !25
  %3 = load ptr, ptr %2, align 8
  %4 = getelementptr inbounds nuw %class.ast, ptr %3, i32 0, i32 2
  %5 = load i32, ptr %4, align 4, !tbaa !460
  ret i32 %5
}

; Function Attrs: mustprogress nounwind uwtable
define linkonce_odr hidden void @_ZN3ast7dec_refEv(ptr noundef nonnull align 4 dereferenceable(16) %0) #7 comdat align 2 {
  %2 = alloca ptr, align 8
  store ptr %0, ptr %2, align 8, !tbaa !25
  %3 = load ptr, ptr %2, align 8
  %4 = getelementptr inbounds nuw %class.ast, ptr %3, i32 0, i32 2
  %5 = load i32, ptr %4, align 4, !tbaa !460
  %6 = add i32 %5, -1
  store i32 %6, ptr %4, align 4, !tbaa !460
  ret void
}

; Function Attrs: mustprogress uwtable
define linkonce_odr hidden void @_ZN11ast_manager7dec_refEP3ast(ptr noundef nonnull align 8 dereferenceable(976) %0, ptr noundef %1) #4 comdat align 2 {
  %3 = alloca ptr, align 8
  %4 = alloca ptr, align 8
  store ptr %0, ptr %3, align 8, !tbaa !50
  store ptr %1, ptr %4, align 8, !tbaa !25
  %5 = load ptr, ptr %3, align 8
  %6 = load ptr, ptr %4, align 8, !tbaa !25
  %7 = icmp ne ptr %6, null
  br i1 %7, label %8, label %16

8:                                                ; preds = %2
  %9 = load ptr, ptr %4, align 8, !tbaa !25
  call void @_ZN3ast7dec_refEv(ptr noundef nonnull align 4 dereferenceable(16) %9)
  %10 = load ptr, ptr %4, align 8, !tbaa !25
  %11 = call noundef i32 @_ZNK3ast13get_ref_countEv(ptr noundef nonnull align 4 dereferenceable(16) %10)
  %12 = icmp eq i32 %11, 0
  br i1 %12, label %13, label %15

13:                                               ; preds = %8
  %14 = load ptr, ptr %4, align 8, !tbaa !25
  call void @_ZN11ast_manager11delete_nodeEP3ast(ptr noundef nonnull align 8 dereferenceable(976) %5, ptr noundef %14)
  br label %15

15:                                               ; preds = %13, %8
  br label %16

16:                                               ; preds = %15, %2
  ret void
}

; Function Attrs: mustprogress nounwind uwtable
define linkonce_odr hidden void @_ZN3ast7inc_refEv(ptr noundef nonnull align 4 dereferenceable(16) %0) #7 comdat align 2 {
  %2 = alloca ptr, align 8
  store ptr %0, ptr %2, align 8, !tbaa !25
  %3 = load ptr, ptr %2, align 8
  %4 = getelementptr inbounds nuw %class.ast, ptr %3, i32 0, i32 2
  %5 = load i32, ptr %4, align 4, !tbaa !460
  %6 = add i32 %5, 1
  store i32 %6, ptr %4, align 4, !tbaa !460
  ret void
}

; Function Attrs: mustprogress uwtable
define linkonce_odr hidden void @_ZN7obj_refI4expr11ast_managerE7dec_refEv(ptr noundef nonnull align 8 dereferenceable(16) %0) #4 comdat align 2 {
  %2 = alloca ptr, align 8
  store ptr %0, ptr %2, align 8, !tbaa !39
  %3 = load ptr, ptr %2, align 8
  %4 = getelementptr inbounds nuw %class.obj_ref.26, ptr %3, i32 0, i32 0
  %5 = load ptr, ptr %4, align 8, !tbaa !59
  %6 = icmp ne ptr %5, null
  br i1 %6, label %7, label %12

7:                                                ; preds = %1
  %8 = getelementptr inbounds nuw %class.obj_ref.26, ptr %3, i32 0, i32 1
  %9 = load ptr, ptr %8, align 8, !tbaa !57
  %10 = getelementptr inbounds nuw %class.obj_ref.26, ptr %3, i32 0, i32 0
  %11 = load ptr, ptr %10, align 8, !tbaa !59
  call void @_ZN11ast_manager7dec_refEP3ast(ptr noundef nonnull align 8 dereferenceable(976) %9, ptr noundef %11)
  br label %12

12:                                               ; preds = %7, %1
  ret void
}

; Function Attrs: mustprogress uwtable
define linkonce_odr hidden void @_ZN11ast_manager7inc_refEP3ast(ptr noundef nonnull align 8 dereferenceable(976) %0, ptr noundef %1) #4 comdat align 2 {
  %3 = alloca ptr, align 8
  %4 = alloca ptr, align 8
  store ptr %0, ptr %3, align 8, !tbaa !50
  store ptr %1, ptr %4, align 8, !tbaa !25
  %5 = load ptr, ptr %4, align 8, !tbaa !25
  %6 = icmp ne ptr %5, null
  br i1 %6, label %7, label %9

7:                                                ; preds = %2
  %8 = load ptr, ptr %4, align 8, !tbaa !25
  call void @_ZN3ast7inc_refEv(ptr noundef nonnull align 4 dereferenceable(16) %8)
  br label %9

9:                                                ; preds = %7, %2
  ret void
}

; Function Attrs: mustprogress uwtable
define linkonce_odr hidden void @_ZN12substitution5applyEjPKjRK11expr_offsetR7obj_refI4expr11ast_managerE(ptr noundef nonnull align 8 dereferenceable(124) %0, i32 noundef %1, ptr noundef %2, ptr noundef nonnull align 8 dereferenceable(12) %3, ptr noundef nonnull align 8 dereferenceable(16) %4) #4 comdat align 2 {
  %6 = alloca ptr, align 8
  %7 = alloca i32, align 4
  %8 = alloca ptr, align 8
  %9 = alloca ptr, align 8
  %10 = alloca ptr, align 8
  %11 = alloca %class.expr_offset, align 8
  %12 = alloca %class.expr_offset, align 8
  store ptr %0, ptr %6, align 8, !tbaa !373
  store i32 %1, ptr %7, align 4, !tbaa !17
  store ptr %2, ptr %8, align 8, !tbaa !415
  store ptr %3, ptr %9, align 8, !tbaa !405
  store ptr %4, ptr %10, align 8, !tbaa !39
  %13 = load ptr, ptr %6, align 8
  %14 = load i32, ptr %7, align 4, !tbaa !17
  %15 = load ptr, ptr %8, align 8, !tbaa !415
  %16 = load ptr, ptr %9, align 8, !tbaa !405
  call void @llvm.lifetime.start.p0(i64 16, ptr %11) #3
  call void @_ZN11expr_offsetC2EP4exprj(ptr noundef nonnull align 8 dereferenceable(12) %11, ptr noundef null, i32 noundef 0)
  call void @llvm.lifetime.start.p0(i64 16, ptr %12) #3
  call void @_ZN11expr_offsetC2EP4exprj(ptr noundef nonnull align 8 dereferenceable(12) %12, ptr noundef null, i32 noundef 0)
  %17 = load ptr, ptr %10, align 8, !tbaa !39
  call void @_ZN12substitution5applyEjPKjRK11expr_offsetS4_S4_R7obj_refI4expr11ast_managerE(ptr noundef nonnull align 8 dereferenceable(124) %13, i32 noundef %14, ptr noundef %15, ptr noundef nonnull align 8 dereferenceable(12) %16, ptr noundef nonnull align 8 dereferenceable(12) %11, ptr noundef nonnull align 8 dereferenceable(12) %12, ptr noundef nonnull align 8 dereferenceable(16) %17)
  call void @llvm.lifetime.end.p0(i64 16, ptr %12) #3
  call void @llvm.lifetime.end.p0(i64 16, ptr %11) #3
  ret void
}

; Function Attrs: mustprogress nounwind uwtable
define linkonce_odr hidden void @_ZN11expr_offsetC2EP4exprj(ptr noundef nonnull align 8 dereferenceable(12) %0, ptr noundef %1, i32 noundef %2) unnamed_addr #7 comdat align 2 {
  %4 = alloca ptr, align 8
  %5 = alloca ptr, align 8
  %6 = alloca i32, align 4
  store ptr %0, ptr %4, align 8, !tbaa !405
  store ptr %1, ptr %5, align 8, !tbaa !8
  store i32 %2, ptr %6, align 4, !tbaa !17
  %7 = load ptr, ptr %4, align 8
  %8 = getelementptr inbounds nuw %class.expr_offset, ptr %7, i32 0, i32 0
  %9 = load ptr, ptr %5, align 8, !tbaa !8
  store ptr %9, ptr %8, align 8, !tbaa !406
  %10 = getelementptr inbounds nuw %class.expr_offset, ptr %7, i32 0, i32 1
  %11 = load i32, ptr %6, align 4, !tbaa !17
  store i32 %11, ptr %10, align 8, !tbaa !408
  ret void
}

; Function Attrs: mustprogress uwtable
define linkonce_odr hidden noundef nonnull align 8 dereferenceable(16) ptr @_ZN7obj_refI4expr11ast_managerEaSEPS0_(ptr noundef nonnull align 8 dereferenceable(16) %0, ptr noundef %1) #4 comdat align 2 {
  %3 = alloca ptr, align 8
  %4 = alloca ptr, align 8
  store ptr %0, ptr %3, align 8, !tbaa !39
  store ptr %1, ptr %4, align 8, !tbaa !8
  %5 = load ptr, ptr %3, align 8
  %6 = load ptr, ptr %4, align 8, !tbaa !8
  %7 = icmp ne ptr %6, null
  br i1 %7, label %8, label %12

8:                                                ; preds = %2
  %9 = getelementptr inbounds nuw %class.obj_ref.26, ptr %5, i32 0, i32 1
  %10 = load ptr, ptr %9, align 8, !tbaa !57
  %11 = load ptr, ptr %4, align 8, !tbaa !8
  call void @_ZN11ast_manager7inc_refEP3ast(ptr noundef nonnull align 8 dereferenceable(976) %10, ptr noundef %11)
  br label %12

12:                                               ; preds = %8, %2
  call void @_ZN7obj_refI4expr11ast_managerE7dec_refEv(ptr noundef nonnull align 8 dereferenceable(16) %5)
  %13 = load ptr, ptr %4, align 8, !tbaa !8
  %14 = getelementptr inbounds nuw %class.obj_ref.26, ptr %5, i32 0, i32 0
  store ptr %13, ptr %14, align 8, !tbaa !59
  ret ptr %5
}

; Function Attrs: mustprogress uwtable
define hidden noundef zeroext i1 @_ZN23demodulator_match_substclEP3appP4exprPKS3_R7obj_refIS2_11ast_managerE(ptr noundef nonnull align 8 dereferenceable(161) %0, ptr noundef %1, ptr noundef %2, ptr noundef %3, ptr noundef nonnull align 8 dereferenceable(16) %4) #4 align 2 {
  %6 = alloca i1, align 1
  %7 = alloca ptr, align 8
  %8 = alloca ptr, align 8
  %9 = alloca ptr, align 8
  %10 = alloca ptr, align 8
  %11 = alloca ptr, align 8
  %12 = alloca [2 x i32], align 4
  %13 = alloca %class.expr_offset, align 8
  store ptr %0, ptr %7, align 8, !tbaa !229
  store ptr %1, ptr %8, align 8, !tbaa !27
  store ptr %2, ptr %9, align 8, !tbaa !8
  store ptr %3, ptr %10, align 8, !tbaa !51
  store ptr %4, ptr %11, align 8, !tbaa !39
  %14 = load ptr, ptr %7, align 8
  %15 = load ptr, ptr %8, align 8, !tbaa !27
  %16 = load ptr, ptr %10, align 8, !tbaa !51
  %17 = call noundef zeroext i1 @_ZN23demodulator_match_subst10match_argsEP3appPKP4expr(ptr noundef nonnull align 8 dereferenceable(161) %14, ptr noundef %15, ptr noundef %16)
  br i1 %17, label %18, label %31

18:                                               ; preds = %5
  %19 = getelementptr inbounds nuw %class.demodulator_match_subst, ptr %14, i32 0, i32 3
  %20 = load i8, ptr %19, align 8, !tbaa !330, !range !178, !noundef !179
  %21 = trunc i8 %20 to i1
  br i1 %21, label %22, label %26

22:                                               ; preds = %18
  %23 = load ptr, ptr %9, align 8, !tbaa !8
  %24 = load ptr, ptr %11, align 8, !tbaa !39
  %25 = call noundef nonnull align 8 dereferenceable(16) ptr @_ZN7obj_refI4expr11ast_managerEaSEPS0_(ptr noundef nonnull align 8 dereferenceable(16) %24, ptr noundef %23)
  store i1 true, ptr %6, align 1
  br label %32

26:                                               ; preds = %18
  call void @llvm.lifetime.start.p0(i64 8, ptr %12) #3
  call void @llvm.memset.p0.i64(ptr align 4 %12, i8 0, i64 8, i1 false)
  %27 = getelementptr inbounds nuw %class.demodulator_match_subst, ptr %14, i32 0, i32 0
  %28 = getelementptr inbounds [2 x i32], ptr %12, i64 0, i64 0
  call void @llvm.lifetime.start.p0(i64 16, ptr %13) #3
  %29 = load ptr, ptr %9, align 8, !tbaa !8
  call void @_ZN11expr_offsetC2EP4exprj(ptr noundef nonnull align 8 dereferenceable(12) %13, ptr noundef %29, i32 noundef 0)
  %30 = load ptr, ptr %11, align 8, !tbaa !39
  call void @_ZN12substitution5applyEjPKjRK11expr_offsetR7obj_refI4expr11ast_managerE(ptr noundef nonnull align 8 dereferenceable(124) %27, i32 noundef 2, ptr noundef %28, ptr noundef nonnull align 8 dereferenceable(12) %13, ptr noundef nonnull align 8 dereferenceable(16) %30)
  call void @llvm.lifetime.end.p0(i64 16, ptr %13) #3
  store i1 true, ptr %6, align 1
  call void @llvm.lifetime.end.p0(i64 8, ptr %12) #3
  br label %32

31:                                               ; preds = %5
  store i1 false, ptr %6, align 1
  br label %32

32:                                               ; preds = %31, %26, %22
  %33 = load i1, ptr %6, align 1
  ret i1 %33
}