; Function Attrs: mustprogress uwtable
define hidden noundef zeroext i1 @_ZN23demodulator_match_substclEP3appP4exprPKS3_R7obj_refIS2_11ast_managerE(ptr noundef nonnull align 8 dereferenceable(161) %0, ptr noundef readonly captures(none) %1, ptr noundef %2, ptr noundef readonly captures(none) %3, ptr noundef nonnull align 8 dereferenceable(16) %4) local_unnamed_addr #3 align 2 {
  %6 = alloca %class.expr_offset, align 8
  %7 = alloca %class.expr_offset, align 8
  %8 = alloca [2 x i32], align 8
  %9 = alloca %class.expr_offset, align 8
  %10 = tail call noundef zeroext i1 @_ZN23demodulator_match_subst10match_argsEP3appPKP4expr(ptr noundef nonnull align 8 dereferenceable(161) %0, ptr noundef %1, ptr noundef %3)
  br i1 %10, label %11, label %33

11:                                               ; preds = %5
  %12 = getelementptr inbounds nuw i8, ptr %0, i64 160
  %13 = load i8, ptr %12, align 8, !tbaa !334, !range !165, !noundef !166
  %14 = trunc nuw i8 %13 to i1
  br i1 %14, label %15, label %29

15:                                               ; preds = %11
  %.not.i = icmp eq ptr %2, null
  br i1 %.not.i, label %19, label %_ZN11ast_manager7inc_refEP3ast.exit.i

_ZN11ast_manager7inc_refEP3ast.exit.i:            ; preds = %15
  %16 = getelementptr inbounds nuw i8, ptr %2, i64 8
  %17 = load i32, ptr %16, align 4, !tbaa !50
  %18 = add i32 %17, 1
  store i32 %18, ptr %16, align 4, !tbaa !50
  br label %19

19:                                               ; preds = %_ZN11ast_manager7inc_refEP3ast.exit.i, %15
  %20 = load ptr, ptr %4, align 8, !tbaa !55
  %.not.i4.i = icmp eq ptr %20, null
  br i1 %.not.i4.i, label %_ZN7obj_refI4expr11ast_managerEaSEPS0_.exit, label %21

21:                                               ; preds = %19
  %22 = getelementptr inbounds nuw i8, ptr %4, i64 8
  %23 = load ptr, ptr %22, align 8, !tbaa !57
  %24 = getelementptr inbounds nuw i8, ptr %20, i64 8
  %25 = load i32, ptr %24, align 4, !tbaa !50
  %26 = add i32 %25, -1
  store i32 %26, ptr %24, align 4, !tbaa !50
  %27 = icmp eq i32 %26, 0
  br i1 %27, label %28, label %_ZN7obj_refI4expr11ast_managerEaSEPS0_.exit

28:                                               ; preds = %21
  tail call void @_ZN11ast_manager11delete_nodeEP3ast(ptr noundef nonnull align 8 dereferenceable(976) %23, ptr noundef nonnull %20)
  br label %_ZN7obj_refI4expr11ast_managerEaSEPS0_.exit

_ZN7obj_refI4expr11ast_managerEaSEPS0_.exit:      ; preds = %19, %21, %28
  store ptr %2, ptr %4, align 8, !tbaa !55
  br label %33

29:                                               ; preds = %11
  call void @llvm.lifetime.start.p0(i64 8, ptr nonnull %8) #22
  store i64 0, ptr %8, align 8
  call void @llvm.lifetime.start.p0(i64 16, ptr nonnull %9) #22
  store ptr %2, ptr %9, align 8, !tbaa !335
  %30 = getelementptr inbounds nuw i8, ptr %9, i64 8
  store i32 0, ptr %30, align 8, !tbaa !337
  call void @llvm.lifetime.start.p0(i64 16, ptr nonnull %6) #22
  store ptr null, ptr %6, align 8, !tbaa !335
  %31 = getelementptr inbounds nuw i8, ptr %6, i64 8
  store i32 0, ptr %31, align 8, !tbaa !337
  call void @llvm.lifetime.start.p0(i64 16, ptr nonnull %7) #22
  store ptr null, ptr %7, align 8, !tbaa !335
  %32 = getelementptr inbounds nuw i8, ptr %7, i64 8
  store i32 0, ptr %32, align 8, !tbaa !337
  call void @_ZN12substitution5applyEjPKjRK11expr_offsetS4_S4_R7obj_refI4expr11ast_managerE(ptr noundef nonnull align 8 dereferenceable(124) %0, i32 noundef 2, ptr noundef nonnull %8, ptr noundef nonnull align 8 dereferenceable(12) %9, ptr noundef nonnull align 8 dereferenceable(12) %6, ptr noundef nonnull align 8 dereferenceable(12) %7, ptr noundef nonnull align 8 dereferenceable(16) %4)
  call void @llvm.lifetime.end.p0(i64 16, ptr nonnull %7) #22
  call void @llvm.lifetime.end.p0(i64 16, ptr nonnull %6) #22
  call void @llvm.lifetime.end.p0(i64 16, ptr nonnull %9) #22
  call void @llvm.lifetime.end.p0(i64 8, ptr nonnull %8) #22
  br label %33

33:                                               ; preds = %5, %29, %_ZN7obj_refI4expr11ast_managerEaSEPS0_.exit
  ret i1 %10
}